; Function Attrs: mustprogress uwtable
define noundef range(i32 -4, 2) i32 @_ZNK10open_spiel26bridge_uncontested_bidding23UncontestedBiddingState13CurrentPlayerEv(ptr noundef nonnull align 8 dereferenceable(5392) %0) unnamed_addr #3 align 2 {
  %2 = getelementptr inbounds nuw i8, ptr %0, i64 5356
  %3 = load i8, ptr %2, align 4
  %4 = trunc i8 %3 to i1
  br i1 %4, label %5, label %21

5:                                                ; preds = %1
  %6 = load ptr, ptr %0, align 8
  %7 = getelementptr inbounds nuw i8, ptr %6, i64 88
  %8 = load ptr, ptr %7, align 8
  %9 = tail call noundef zeroext i1 %8(ptr noundef nonnull align 8 dereferenceable(5392) %0)
  br i1 %9, label %21, label %10

10:                                               ; preds = %5
  %11 = getelementptr inbounds nuw i8, ptr %0, i64 88
  %12 = getelementptr inbounds nuw i8, ptr %0, i64 96
  %13 = load ptr, ptr %12, align 8
  %14 = load ptr, ptr %11, align 8
  %15 = ptrtoint ptr %13 to i64
  %16 = ptrtoint ptr %14 to i64
  %17 = sub i64 %15, %16
  %18 = trunc i64 %17 to i32
  %19 = lshr i32 %18, 3
  %20 = and i32 %19, 1
  br label %21

21:                                               ; preds = %5, %1, %10
  %.0 = phi i32 [ %20, %10 ], [ -1, %1 ], [ -4, %5 ]
  ret i32 %.0
}